target datalayout = "e-m:e-p270:32:32-p271:32:32-p272:64:64-i64:64-i128:128-f80:128-n8:16:32:64-S128"
target triple = "x86_64-pc-linux-gnu"

%struct.H5FL_reg_head_t = type { i8, i32, i32, ptr, i64, ptr }
%struct.H5VL_connector_prop_t = type { i64, ptr }
%struct.H5CX_state_t = type { i64, i64, i64, i64, ptr, %struct.H5VL_connector_prop_t }

@H5P_LST_DATASET_XFER_ID_g = external global i64, align 8
@.str = private unnamed_addr constant [98 x i8] c"generated/home/dtcxzyw/WorkSpace/Projects/compilers/llvm-opt-benchmark/bench/hdf5/hdf5/src/H5CX.c\00", align 1
@H5E_CONTEXT_g = external global i64, align 8
@H5P_LST_LINK_CREATE_ID_g = external global i64, align 8
@H5P_LST_LINK_ACCESS_ID_g = external global i64, align 8
@H5P_LST_DATASET_CREATE_ID_g = external global i64, align 8
@H5_H5CX_state_t_reg_free_list = internal global %struct.H5FL_reg_head_t { i8 0, i32 0, i32 0, ptr @.str.82, i64 56, ptr null }, align 8
@H5E_CANTRELEASE_g = external global i64, align 8
@__func__.H5CX_free_state = private unnamed_addr constant [16 x i8] c"H5CX_free_state\00", align 1
@H5E_CANTDEC_g = external global i64, align 8
@.str.63 = private unnamed_addr constant [33 x i8] c"can't decrement refcount on DCPL\00", align 1
@.str.64 = private unnamed_addr constant [33 x i8] c"can't decrement refcount on DXPL\00", align 1
@.str.65 = private unnamed_addr constant [33 x i8] c"can't decrement refcount on LAPL\00", align 1
@.str.66 = private unnamed_addr constant [33 x i8] c"can't decrement refcount on LCPL\00", align 1
@.str.67 = private unnamed_addr constant [49 x i8] c"can't decrement refcount on VOL wrapping context\00", align 1
@.str.68 = private unnamed_addr constant [44 x i8] c"unable to release VOL connector info object\00", align 1
@.str.69 = private unnamed_addr constant [29 x i8] c"can't close VOL connector ID\00", align 1

; Function Attrs: nounwind uwtable
define i32 @H5CX_free_state(ptr noundef %0) #0 {
  %2 = alloca ptr, align 8
  %3 = alloca i32, align 4
  %4 = alloca i8, align 1
  store ptr %0, ptr %2, align 8
  store i32 0, ptr %3, align 4
  store i8 0, ptr %4, align 1
  %5 = load ptr, ptr %2, align 8
  %6 = getelementptr inbounds %struct.H5CX_state_t, ptr %5, i32 0, i32 0
  %7 = load i64, ptr %6, align 8
  %8 = icmp ne i64 0, %7
  br i1 %8, label %9, label %37

9:                                                ; preds = %1
  %10 = load i64, ptr @H5P_LST_DATASET_CREATE_ID_g, align 8
  %11 = load ptr, ptr %2, align 8
  %12 = getelementptr inbounds %struct.H5CX_state_t, ptr %11, i32 0, i32 0
  %13 = load i64, ptr %12, align 8
  %14 = icmp ne i64 %10, %13
  br i1 %14, label %15, label %37

15:                                               ; preds = %9
  %16 = load ptr, ptr %2, align 8
  %17 = getelementptr inbounds %struct.H5CX_state_t, ptr %16, i32 0, i32 0
  %18 = load i64, ptr %17, align 8
  %19 = call i32 @H5I_dec_ref(i64 noundef %18)
  %20 = icmp slt i32 %19, 0
  br i1 %20, label %21, label %36

21:                                               ; preds = %15
  br label %22

22:                                               ; preds = %21
  br label %23

23:                                               ; preds = %22
  br label %24

24:                                               ; preds = %23
  %25 = load i64, ptr @H5E_CONTEXT_g, align 8
  %26 = load i64, ptr @H5E_CANTDEC_g, align 8
  %27 = call i32 (ptr, ptr, i32, i64, i64, ptr, ...) @H5E_printf_stack(ptr noundef @.str, ptr noundef @__func__.H5CX_free_state, i32 noundef 1104, i64 noundef %25, i64 noundef %26, ptr noundef @.str.63)
  br label %28

28:                                               ; preds = %24
  store i8 1, ptr %4, align 1
  %29 = load i8, ptr %4, align 1
  %30 = trunc i8 %29 to i1
  %31 = zext i1 %30 to i8
  store i8 %31, ptr %4, align 1
  br label %32

32:                                               ; preds = %28
  br label %33

33:                                               ; preds = %32
  store i32 -1, ptr %3, align 4
  br label %226

34:                                               ; No predecessors!
  br label %35

35:                                               ; preds = %34
  br label %36

36:                                               ; preds = %35, %15
  br label %37

37:                                               ; preds = %36, %9, %1
  %38 = load ptr, ptr %2, align 8
  %39 = getelementptr inbounds %struct.H5CX_state_t, ptr %38, i32 0, i32 1
  %40 = load i64, ptr %39, align 8
  %41 = icmp ne i64 0, %40
  br i1 %41, label %42, label %70

42:                                               ; preds = %37
  %43 = load i64, ptr @H5P_LST_DATASET_XFER_ID_g, align 8
  %44 = load ptr, ptr %2, align 8
  %45 = getelementptr inbounds %struct.H5CX_state_t, ptr %44, i32 0, i32 1
  %46 = load i64, ptr %45, align 8
  %47 = icmp ne i64 %43, %46
  br i1 %47, label %48, label %70

48:                                               ; preds = %42
  %49 = load ptr, ptr %2, align 8
  %50 = getelementptr inbounds %struct.H5CX_state_t, ptr %49, i32 0, i32 1
  %51 = load i64, ptr %50, align 8
  %52 = call i32 @H5I_dec_ref(i64 noundef %51)
  %53 = icmp slt i32 %52, 0
  br i1 %53, label %54, label %69

54:                                               ; preds = %48
  br label %55

55:                                               ; preds = %54
  br label %56

56:                                               ; preds = %55
  br label %57

57:                                               ; preds = %56
  %58 = load i64, ptr @H5E_CONTEXT_g, align 8
  %59 = load i64, ptr @H5E_CANTDEC_g, align 8
  %60 = call i32 (ptr, ptr, i32, i64, i64, ptr, ...) @H5E_printf_stack(ptr noundef @.str, ptr noundef @__func__.H5CX_free_state, i32 noundef 1109, i64 noundef %58, i64 noundef %59, ptr noundef @.str.64)
  br label %61

61:                                               ; preds = %57
  store i8 1, ptr %4, align 1
  %62 = load i8, ptr %4, align 1
  %63 = trunc i8 %62 to i1
  %64 = zext i1 %63 to i8
  store i8 %64, ptr %4, align 1
  br label %65

65:                                               ; preds = %61
  br label %66

66:                                               ; preds = %65
  store i32 -1, ptr %3, align 4
  br label %226

67:                                               ; No predecessors!
  br label %68

68:                                               ; preds = %67
  br label %69

69:                                               ; preds = %68, %48
  br label %70

70:                                               ; preds = %69, %42, %37
  %71 = load ptr, ptr %2, align 8
  %72 = getelementptr inbounds %struct.H5CX_state_t, ptr %71, i32 0, i32 2
  %73 = load i64, ptr %72, align 8
  %74 = icmp ne i64 0, %73
  br i1 %74, label %75, label %103

75:                                               ; preds = %70
  %76 = load i64, ptr @H5P_LST_LINK_ACCESS_ID_g, align 8
  %77 = load ptr, ptr %2, align 8
  %78 = getelementptr inbounds %struct.H5CX_state_t, ptr %77, i32 0, i32 2
  %79 = load i64, ptr %78, align 8
  %80 = icmp ne i64 %76, %79
  br i1 %80, label %81, label %103

81:                                               ; preds = %75
  %82 = load ptr, ptr %2, align 8
  %83 = getelementptr inbounds %struct.H5CX_state_t, ptr %82, i32 0, i32 2
  %84 = load i64, ptr %83, align 8
  %85 = call i32 @H5I_dec_ref(i64 noundef %84)
  %86 = icmp slt i32 %85, 0
  br i1 %86, label %87, label %102

87:                                               ; preds = %81
  br label %88

88:                                               ; preds = %87
  br label %89

89:                                               ; preds = %88
  br label %90

90:                                               ; preds = %89
  %91 = load i64, ptr @H5E_CONTEXT_g, align 8
  %92 = load i64, ptr @H5E_CANTDEC_g, align 8
  %93 = call i32 (ptr, ptr, i32, i64, i64, ptr, ...) @H5E_printf_stack(ptr noundef @.str, ptr noundef @__func__.H5CX_free_state, i32 noundef 1114, i64 noundef %91, i64 noundef %92, ptr noundef @.str.65)
  br label %94

94:                                               ; preds = %90
  store i8 1, ptr %4, align 1
  %95 = load i8, ptr %4, align 1
  %96 = trunc i8 %95 to i1
  %97 = zext i1 %96 to i8
  store i8 %97, ptr %4, align 1
  br label %98

98:                                               ; preds = %94
  br label %99

99:                                               ; preds = %98
  store i32 -1, ptr %3, align 4
  br label %226

100:                                              ; No predecessors!
  br label %101

101:                                              ; preds = %100
  br label %102

102:                                              ; preds = %101, %81
  br label %103

103:                                              ; preds = %102, %75, %70
  %104 = load ptr, ptr %2, align 8
  %105 = getelementptr inbounds %struct.H5CX_state_t, ptr %104, i32 0, i32 3
  %106 = load i64, ptr %105, align 8
  %107 = icmp ne i64 0, %106
  br i1 %107, label %108, label %136

108:                                              ; preds = %103
  %109 = load i64, ptr @H5P_LST_LINK_CREATE_ID_g, align 8
  %110 = load ptr, ptr %2, align 8
  %111 = getelementptr inbounds %struct.H5CX_state_t, ptr %110, i32 0, i32 3
  %112 = load i64, ptr %111, align 8
  %113 = icmp ne i64 %109, %112
  br i1 %113, label %114, label %136

114:                                              ; preds = %108
  %115 = load ptr, ptr %2, align 8
  %116 = getelementptr inbounds %struct.H5CX_state_t, ptr %115, i32 0, i32 3
  %117 = load i64, ptr %116, align 8
  %118 = call i32 @H5I_dec_ref(i64 noundef %117)
  %119 = icmp slt i32 %118, 0
  br i1 %119, label %120, label %135

120:                                              ; preds = %114
  br label %121

121:                                              ; preds = %120
  br label %122

122:                                              ; preds = %121
  br label %123

123:                                              ; preds = %122
  %124 = load i64, ptr @H5E_CONTEXT_g, align 8
  %125 = load i64, ptr @H5E_CANTDEC_g, align 8
  %126 = call i32 (ptr, ptr, i32, i64, i64, ptr, ...) @H5E_printf_stack(ptr noundef @.str, ptr noundef @__func__.H5CX_free_state, i32 noundef 1119, i64 noundef %124, i64 noundef %125, ptr noundef @.str.66)
  br label %127

127:                                              ; preds = %123
  store i8 1, ptr %4, align 1
  %128 = load i8, ptr %4, align 1
  %129 = trunc i8 %128 to i1
  %130 = zext i1 %129 to i8
  store i8 %130, ptr %4, align 1
  br label %131

131:                                              ; preds = %127
  br label %132

132:                                              ; preds = %131
  store i32 -1, ptr %3, align 4
  br label %226

133:                                              ; No predecessors!
  br label %134

134:                                              ; preds = %133
  br label %135

135:                                              ; preds = %134, %114
  br label %136

136:                                              ; preds = %135, %108, %103
  %137 = load ptr, ptr %2, align 8
  %138 = getelementptr inbounds %struct.H5CX_state_t, ptr %137, i32 0, i32 4
  %139 = load ptr, ptr %138, align 8
  %140 = icmp ne ptr %139, null
  br i1 %140, label %141, label %163

141:                                              ; preds = %136
  %142 = load ptr, ptr %2, align 8
  %143 = getelementptr inbounds %struct.H5CX_state_t, ptr %142, i32 0, i32 4
  %144 = load ptr, ptr %143, align 8
  %145 = call i32 @H5VL_dec_vol_wrapper(ptr noundef %144)
  %146 = icmp slt i32 %145, 0
  br i1 %146, label %147, label %162

147:                                              ; preds = %141
  br label %148

148:                                              ; preds = %147
  br label %149

149:                                              ; preds = %148
  br label %150

150:                                              ; preds = %149
  %151 = load i64, ptr @H5E_CONTEXT_g, align 8
  %152 = load i64, ptr @H5E_CANTDEC_g, align 8
  %153 = call i32 (ptr, ptr, i32, i64, i64, ptr, ...) @H5E_printf_stack(ptr noundef @.str, ptr noundef @__func__.H5CX_free_state, i32 noundef 1124, i64 noundef %151, i64 noundef %152, ptr noundef @.str.67)
  br label %154

154:                                              ; preds = %150
  store i8 1, ptr %4, align 1
  %155 = load i8, ptr %4, align 1
  %156 = trunc i8 %155 to i1
  %157 = zext i1 %156 to i8
  store i8 %157, ptr %4, align 1
  br label %158

158:                                              ; preds = %154
  br label %159

159:                                              ; preds = %158
  store i32 -1, ptr %3, align 4
  br label %226

160:                                              ; No predecessors!
  br label %161

161:                                              ; preds = %160
  br label %162

162:                                              ; preds = %161, %141
  br label %163

163:                                              ; preds = %162, %136
  %164 = load ptr, ptr %2, align 8
  %165 = getelementptr inbounds %struct.H5CX_state_t, ptr %164, i32 0, i32 5
  %166 = getelementptr inbounds %struct.H5VL_connector_prop_t, ptr %165, i32 0, i32 0
  %167 = load i64, ptr %166, align 8
  %168 = icmp ne i64 %167, 0
  br i1 %168, label %169, label %223

169:                                              ; preds = %163
  %170 = load ptr, ptr %2, align 8
  %171 = getelementptr inbounds %struct.H5CX_state_t, ptr %170, i32 0, i32 5
  %172 = getelementptr inbounds %struct.H5VL_connector_prop_t, ptr %171, i32 0, i32 1
  %173 = load ptr, ptr %172, align 8
  %174 = icmp ne ptr %173, null
  br i1 %174, label %175, label %202

175:                                              ; preds = %169
  %176 = load ptr, ptr %2, align 8
  %177 = getelementptr inbounds %struct.H5CX_state_t, ptr %176, i32 0, i32 5
  %178 = getelementptr inbounds %struct.H5VL_connector_prop_t, ptr %177, i32 0, i32 0
  %179 = load i64, ptr %178, align 8
  %180 = load ptr, ptr %2, align 8
  %181 = getelementptr inbounds %struct.H5CX_state_t, ptr %180, i32 0, i32 5
  %182 = getelementptr inbounds %struct.H5VL_connector_prop_t, ptr %181, i32 0, i32 1
  %183 = load ptr, ptr %182, align 8
  %184 = call i32 @H5VL_free_connector_info(i64 noundef %179, ptr noundef %183)
  %185 = icmp slt i32 %184, 0
  br i1 %185, label %186, label %201

186:                                              ; preds = %175
  br label %187

187:                                              ; preds = %186
  br label %188

188:                                              ; preds = %187
  br label %189

189:                                              ; preds = %188
  %190 = load i64, ptr @H5E_CONTEXT_g, align 8
  %191 = load i64, ptr @H5E_CANTRELEASE_g, align 8
  %192 = call i32 (ptr, ptr, i32, i64, i64, ptr, ...) @H5E_printf_stack(ptr noundef @.str, ptr noundef @__func__.H5CX_free_state, i32 noundef 1133, i64 noundef %190, i64 noundef %191, ptr noundef @.str.68)
  br label %193

193:                                              ; preds = %189
  store i8 1, ptr %4, align 1
  %194 = load i8, ptr %4, align 1
  %195 = trunc i8 %194 to i1
  %196 = zext i1 %195 to i8
  store i8 %196, ptr %4, align 1
  br label %197

197:                                              ; preds = %193
  br label %198

198:                                              ; preds = %197
  store i32 -1, ptr %3, align 4
  br label %226

199:                                              ; No predecessors!
  br label %200

200:                                              ; preds = %199
  br label %201

201:                                              ; preds = %200, %175
  br label %202

202:                                              ; preds = %201, %169
  %203 = load ptr, ptr %2, align 8
  %204 = getelementptr inbounds %struct.H5CX_state_t, ptr %203, i32 0, i32 5
  %205 = getelementptr inbounds %struct.H5VL_connector_prop_t, ptr %204, i32 0, i32 0
  %206 = load i64, ptr %205, align 8
  %207 = call i32 @H5I_dec_ref(i64 noundef %206)
  %208 = icmp slt i32 %207, 0
  br i1 %208, label %209, label %222

209:                                              ; preds = %202
  br label %210

210:                                              ; preds = %209
  br label %211

211:                                              ; preds = %210
  br label %212

212:                                              ; preds = %211
  %213 = load i64, ptr @H5E_CONTEXT_g, align 8
  %214 = load i64, ptr @H5E_CANTDEC_g, align 8
  %215 = call i32 (ptr, ptr, i32, i64, i64, ptr, ...) @H5E_printf_stack(ptr noundef @.str, ptr noundef @__func__.H5CX_free_state, i32 noundef 1136, i64 noundef %213, i64 noundef %214, ptr noundef @.str.69)
  br label %216

216:                                              ; preds = %212
  store i8 1, ptr %4, align 1
  %217 = load i8, ptr %4, align 1
  %218 = trunc i8 %217 to i1
  %219 = zext i1 %218 to i8
  store i8 %219, ptr %4, align 1
  br label %220

220:                                              ; preds = %216
  store i32 -1, ptr %3, align 4
  br label %221

221:                                              ; preds = %220
  br label %222

222:                                              ; preds = %221, %202
  br label %223

223:                                              ; preds = %222, %163
  %224 = load ptr, ptr %2, align 8
  %225 = call ptr @H5FL_reg_free(ptr noundef @H5_H5CX_state_t_reg_free_list, ptr noundef %224)
  store ptr %225, ptr %2, align 8
  br label %226

226:                                              ; preds = %223, %198, %159, %132, %99, %66, %33
  %227 = load i32, ptr %3, align 4
  ret i32 %227
}