; Function Attrs: nounwind uwtable
define range(i32 -1, 1) i32 @H5CX_free_state(ptr noundef %0) local_unnamed_addr #0 {
  %2 = load i64, ptr %0, align 8
  %.not = icmp eq i64 %2, 0
  %3 = load i64, ptr @H5P_LST_DATASET_CREATE_ID_g, align 8
  %.not34 = icmp eq i64 %3, %2
  %or.cond = select i1 %.not, i1 true, i1 %.not34
  br i1 %or.cond, label %11, label %4

4:                                                ; preds = %1
  %5 = tail call i32 @H5I_dec_ref(i64 noundef %2) #13
  %6 = icmp slt i32 %5, 0
  br i1 %6, label %7, label %11

7:                                                ; preds = %4
  %8 = load i64, ptr @H5E_CONTEXT_g, align 8
  %9 = load i64, ptr @H5E_CANTDEC_g, align 8
  %10 = tail call i32 (ptr, ptr, i32, i64, i64, ptr, ...) @H5E_printf_stack(ptr noundef nonnull @.str, ptr noundef nonnull @__func__.H5CX_free_state, i32 noundef 1104, i64 noundef %8, i64 noundef %9, ptr noundef nonnull @.str.63) #13
  br label %77

11:                                               ; preds = %4, %1
  %12 = getelementptr inbounds i8, ptr %0, i64 8
  %13 = load i64, ptr %12, align 8
  %.not35 = icmp eq i64 %13, 0
  %14 = load i64, ptr @H5P_LST_DATASET_XFER_ID_g, align 8
  %.not36 = icmp eq i64 %14, %13
  %or.cond44 = select i1 %.not35, i1 true, i1 %.not36
  br i1 %or.cond44, label %22, label %15

15:                                               ; preds = %11
  %16 = tail call i32 @H5I_dec_ref(i64 noundef %13) #13
  %17 = icmp slt i32 %16, 0
  br i1 %17, label %18, label %22

18:                                               ; preds = %15
  %19 = load i64, ptr @H5E_CONTEXT_g, align 8
  %20 = load i64, ptr @H5E_CANTDEC_g, align 8
  %21 = tail call i32 (ptr, ptr, i32, i64, i64, ptr, ...) @H5E_printf_stack(ptr noundef nonnull @.str, ptr noundef nonnull @__func__.H5CX_free_state, i32 noundef 1109, i64 noundef %19, i64 noundef %20, ptr noundef nonnull @.str.64) #13
  br label %77

22:                                               ; preds = %15, %11
  %23 = getelementptr inbounds i8, ptr %0, i64 16
  %24 = load i64, ptr %23, align 8
  %.not37 = icmp eq i64 %24, 0
  %25 = load i64, ptr @H5P_LST_LINK_ACCESS_ID_g, align 8
  %.not38 = icmp eq i64 %25, %24
  %or.cond45 = select i1 %.not37, i1 true, i1 %.not38
  br i1 %or.cond45, label %33, label %26

26:                                               ; preds = %22
  %27 = tail call i32 @H5I_dec_ref(i64 noundef %24) #13
  %28 = icmp slt i32 %27, 0
  br i1 %28, label %29, label %33

29:                                               ; preds = %26
  %30 = load i64, ptr @H5E_CONTEXT_g, align 8
  %31 = load i64, ptr @H5E_CANTDEC_g, align 8
  %32 = tail call i32 (ptr, ptr, i32, i64, i64, ptr, ...) @H5E_printf_stack(ptr noundef nonnull @.str, ptr noundef nonnull @__func__.H5CX_free_state, i32 noundef 1114, i64 noundef %30, i64 noundef %31, ptr noundef nonnull @.str.65) #13
  br label %77

33:                                               ; preds = %26, %22
  %34 = getelementptr inbounds i8, ptr %0, i64 24
  %35 = load i64, ptr %34, align 8
  %.not39 = icmp eq i64 %35, 0
  %36 = load i64, ptr @H5P_LST_LINK_CREATE_ID_g, align 8
  %.not40 = icmp eq i64 %36, %35
  %or.cond46 = select i1 %.not39, i1 true, i1 %.not40
  br i1 %or.cond46, label %44, label %37

37:                                               ; preds = %33
  %38 = tail call i32 @H5I_dec_ref(i64 noundef %35) #13
  %39 = icmp slt i32 %38, 0
  br i1 %39, label %40, label %44

40:                                               ; preds = %37
  %41 = load i64, ptr @H5E_CONTEXT_g, align 8
  %42 = load i64, ptr @H5E_CANTDEC_g, align 8
  %43 = tail call i32 (ptr, ptr, i32, i64, i64, ptr, ...) @H5E_printf_stack(ptr noundef nonnull @.str, ptr noundef nonnull @__func__.H5CX_free_state, i32 noundef 1119, i64 noundef %41, i64 noundef %42, ptr noundef nonnull @.str.66) #13
  br label %77

44:                                               ; preds = %37, %33
  %45 = getelementptr inbounds i8, ptr %0, i64 32
  %46 = load ptr, ptr %45, align 8
  %.not41 = icmp eq ptr %46, null
  br i1 %.not41, label %54, label %47

47:                                               ; preds = %44
  %48 = tail call i32 @H5VL_dec_vol_wrapper(ptr noundef nonnull %46) #13
  %49 = icmp slt i32 %48, 0
  br i1 %49, label %50, label %54

50:                                               ; preds = %47
  %51 = load i64, ptr @H5E_CONTEXT_g, align 8
  %52 = load i64, ptr @H5E_CANTDEC_g, align 8
  %53 = tail call i32 (ptr, ptr, i32, i64, i64, ptr, ...) @H5E_printf_stack(ptr noundef nonnull @.str, ptr noundef nonnull @__func__.H5CX_free_state, i32 noundef 1124, i64 noundef %51, i64 noundef %52, ptr noundef nonnull @.str.67) #13
  br label %77

54:                                               ; preds = %47, %44
  %55 = getelementptr inbounds i8, ptr %0, i64 40
  %56 = load i64, ptr %55, align 8
  %.not42 = icmp eq i64 %56, 0
  br i1 %.not42, label %75, label %57

57:                                               ; preds = %54
  %58 = getelementptr inbounds i8, ptr %0, i64 48
  %59 = load ptr, ptr %58, align 8
  %.not43 = icmp eq ptr %59, null
  br i1 %.not43, label %67, label %60

60:                                               ; preds = %57
  %61 = tail call i32 @H5VL_free_connector_info(i64 noundef %56, ptr noundef nonnull %59) #13
  %62 = icmp slt i32 %61, 0
  br i1 %62, label %63, label %._crit_edge

._crit_edge:                                      ; preds = %60
  %.pre = load i64, ptr %55, align 8
  br label %67

63:                                               ; preds = %60
  %64 = load i64, ptr @H5E_CONTEXT_g, align 8
  %65 = load i64, ptr @H5E_CANTRELEASE_g, align 8
  %66 = tail call i32 (ptr, ptr, i32, i64, i64, ptr, ...) @H5E_printf_stack(ptr noundef nonnull @.str, ptr noundef nonnull @__func__.H5CX_free_state, i32 noundef 1133, i64 noundef %64, i64 noundef %65, ptr noundef nonnull @.str.68) #13
  br label %77

67:                                               ; preds = %._crit_edge, %57
  %68 = phi i64 [ %.pre, %._crit_edge ], [ %56, %57 ]
  %69 = tail call i32 @H5I_dec_ref(i64 noundef %68) #13
  %70 = icmp slt i32 %69, 0
  br i1 %70, label %71, label %75

71:                                               ; preds = %67
  %72 = load i64, ptr @H5E_CONTEXT_g, align 8
  %73 = load i64, ptr @H5E_CANTDEC_g, align 8
  %74 = tail call i32 (ptr, ptr, i32, i64, i64, ptr, ...) @H5E_printf_stack(ptr noundef nonnull @.str, ptr noundef nonnull @__func__.H5CX_free_state, i32 noundef 1136, i64 noundef %72, i64 noundef %73, ptr noundef nonnull @.str.69) #13
  br label %75

75:                                               ; preds = %67, %71, %54
  %.0 = phi i32 [ -1, %71 ], [ 0, %67 ], [ 0, %54 ]
  %76 = tail call ptr @H5FL_reg_free(ptr noundef nonnull @H5_H5CX_state_t_reg_free_list, ptr noundef nonnull %0) #13
  br label %77

77:                                               ; preds = %75, %63, %50, %40, %29, %18, %7
  %.1 = phi i32 [ -1, %7 ], [ -1, %18 ], [ -1, %29 ], [ -1, %40 ], [ -1, %50 ], [ -1, %63 ], [ %.0, %75 ]
  ret i32 %.1
}